(dp0
S'METTS MARK'
p1
(dp2
S'to_messages'
p3
F807.0
sS'deferral_payments'
p4
F0.0
sS'expenses'
p5
F94299.0
sS'poi'
p6
I00
sS'long_term_incentive'
p7
F0.0
sS'from_poi_to_this_person'
p8
F38.0
sS'deferred_income'
p9
F0.0
sS'restricted_stock_deferred'
p10
F0.0
sS'shared_receipt_with_poi'
p11
F702.0
sS'loan_advances'
p12
F0.0
sS'from_messages'
p13
F29.0
sS'other'
p14
F1740.0
sS'to_poi_ratio'
p15
F0.04826732673267327
sS'director_fees'
p16
F0.0
sS'bonus'
p17
F600000.0
sS'total_stock_value'
p18
F585062.0
sS'from_this_person_to_poi'
p19
F1.0
sS'from_poi_ratio'
p20
F0.06666666666666667
sS'restricted_stock'
p21
F585062.0
sS'salary'
p22
F365788.0
sS'total_payments'
p23
F1061827.0
sS'shared_poi_ratio'
p24
F0.870049504950495
sS'exercised_stock_options'
p25
F0.0
sS'payments_to_stock'
p26
F1.814895148043886
sS'bonus_to_salary'
p27
F1.640292627717072
ssS'BAXTER JOHN C'
p28
(dp29
g3
F0.0
sg4
F1295738.0
sg5
F11200.0
sg6
I00
sg7
F1586055.0
sg8
F0.0
sg9
F-1386055.0
sg10
F0.0
sg11
F0.0
sg12
F0.0
sg13
F0.0
sg14
F2660303.0
sg15
F0.0
sg16
F0.0
sg17
F1200000.0
sg18
F10623258.0
sg19
F0.0
sg20
F0.0
sg21
F3942714.0
sg22
F267102.0
sg23
F5634343.0
sg24
F0.0
sg25
F6680544.0
sg26
F0.5303781071326605
sg27
F4.492652647106173
ssS'ELLIOTT STEVEN'
p30
(dp31
g3
F0.0
sg4
F0.0
sg5
F78552.0
sg6
I00
sg7
F0.0
sg8
F0.0
sg9
F-400729.0
sg10
F0.0
sg11
F0.0
sg12
F0.0
sg13
F0.0
sg14
F12961.0
sg15
F0.0
sg16
F0.0
sg17
F350000.0
sg18
F6678735.0
sg19
F0.0
sg20
F0.0
sg21
F1788391.0
sg22
F170941.0
sg23
F211725.0
sg24
F0.0
sg25
F4890344.0
sg26
F0.031701507590657874
sg27
F2.0474839419218216
ssS'CORDES WILLIAM R'
p32
(dp33
g3
F764.0
sg4
F0.0
sg5
F0.0
sg6
I00
sg7
F0.0
sg8
F10.0
sg9
F0.0
sg10
F0.0
sg11
F58.0
sg12
F0.0
sg13
F12.0
sg14
F0.0
sg15
F0.01437908496732026
sg16
F0.0
sg17
F0.0
sg18
F1038185.0
sg19
F0.0
sg20
F0.07692307692307693
sg21
F386335.0
sg22
F0.0
sg23
F0.0
sg24
F0.07712418300653595
sg25
F651850.0
sg26
F9.632185369481e-07
sg27
F1.0
ssS'HANNON KEVIN P'
p34
(dp35
g3
F1045.0
sg4
F0.0
sg5
F34039.0
sg6
I01
sg7
F1617011.0
sg8
F32.0
sg9
F-3117011.0
sg10
F0.0
sg11
F1035.0
sg12
F0.0
sg13
F32.0
sg14
F11350.0
sg15
F0.03154875717017208
sg16
F0.0
sg17
F1500000.0
sg18
F6391065.0
sg19
F21.0
sg20
F0.6666666666666666
sg21
F853064.0
sg22
F243293.0
sg23
F288682.0
sg24
F0.9904397705544933
sg25
F5538001.0
sg26
F0.04516977292989933
sg27
F6.165384267593939
ssS'MORDAUNT KRISTINA M'
p36
(dp37
g3
F0.0
sg4
F0.0
sg5
F35018.0
sg6
I00
sg7
F0.0
sg8
F0.0
sg9
F0.0
sg10
F0.0
sg11
F0.0
sg12
F0.0
sg13
F0.0
sg14
F1411.0
sg15
F0.0
sg16
F0.0
sg17
F325000.0
sg18
F208510.0
sg19
F0.0
sg20
F0.0
sg21
F208510.0
sg22
F267093.0
sg23
F628522.0
sg24
F0.0
sg25
F0.0
sg26
F3.0143397710432542
sg27
F1.2168038218754447
ssS'MEYER ROCKFORD G'
p38
(dp39
g3
F232.0
sg4
F1848227.0
sg5
F0.0
sg6
I00
sg7
F0.0
sg8
F0.0
sg9
F0.0
sg10
F0.0
sg11
F22.0
sg12
F0.0
sg13
F28.0
sg14
F0.0
sg15
F0.004291845493562232
sg16
F0.0
sg17
F0.0
sg18
F955873.0
sg19
F0.0
sg20
F0.034482758620689655
sg21
F462384.0
sg22
F0.0
sg23
F1848227.0
sg24
F0.09871244635193133
sg25
F493489.0
sg26
F1.9335477270016759
sg27
F1.0
ssS'MCMAHON JEFFREY'
p40
(dp41
g3
F2355.0
sg4
F0.0
sg5
F137108.0
sg6
I00
sg7
F694862.0
sg8
F58.0
sg9
F0.0
sg10
F0.0
sg11
F2228.0
sg12
F0.0
sg13
F48.0
sg14
F297353.0
sg15
F0.02504244482173175
sg16
F0.0
sg17
F2600000.0
sg18
F1662855.0
sg19
F26.0
sg20
F0.5510204081632653
sg21
F558801.0
sg22
F370448.0
sg23
F4099771.0
sg24
F0.9460950764006791
sg25
F1104054.0
sg26
F2.4655003199314915
sg27
F7.01851266976021
ssS'HORTON STANLEY C'
p42
(dp43
g3
F2350.0
sg4
F3131860.0
sg5
F0.0
sg6
I00
sg7
F0.0
sg8
F44.0
sg9
F0.0
sg10
F0.0
sg11
F1074.0
sg12
F0.0
sg13
F1073.0
sg14
F0.0
sg15
F0.019140791152700978
sg16
F0.0
sg17
F0.0
sg18
F7256648.0
sg19
F15.0
sg20
F0.0148975791433892
sg21
F2046079.0
sg22
F0.0
sg23
F3131860.0
sg24
F0.4572522330923012
sg25
F5210569.0
sg26
F0.4315850194766207
sg27
F1.0
ssS'PIPER GREGORY F'
p44
(dp45
g3
F1238.0
sg4
F1130036.0
sg5
F43057.0
sg6
I00
sg7
F0.0
sg8
F61.0
sg9
F-33333.0
sg10
F-409554.0
sg11
F742.0
sg12
F0.0
sg13
F222.0
sg14
F778.0
sg15
F0.05004035512510089
sg16
F0.0
sg17
F400000.0
sg18
F880290.0
sg19
F48.0
sg20
F0.21973094170403587
sg21
F409554.0
sg22
F197091.0
sg23
F1737629.0
sg24
F0.5996771589991929
sg25
F880290.0
sg26
F1.9739268037501236
sg27
F2.029514135530615
ssS'HUMPHREY GENE E'
p46
(dp47
g3
F128.0
sg4
F2964506.0
sg5
F4994.0
sg6
I00
sg7
F0.0
sg8
F10.0
sg9
F0.0
sg10
F0.0
sg11
F119.0
sg12
F0.0
sg13
F17.0
sg14
F0.0
sg15
F0.08527131782945736
sg16
F0.0
sg17
F0.0
sg18
F2282768.0
sg19
F17.0
sg20
F1.0
sg21
F0.0
sg22
F130724.0
sg23
F3100224.0
sg24
F0.9302325581395349
sg25
F2282768.0
sg26
F1.3580984322110559
sg27
F7.649646203863071e-06
ssS'UMANOFF ADAM S'
p48
(dp49
g3
F111.0
sg4
F0.0
sg5
F53122.0
sg6
I00
sg7
F0.0
sg8
F12.0
sg9
F0.0
sg10
F0.0
sg11
F41.0
sg12
F0.0
sg13
F18.0
sg14
F0.0
sg15
F0.11607142857142858
sg16
F0.0
sg17
F788750.0
sg18
F0.0
sg19
F0.0
sg20
F0.05263157894736842
sg21
F0.0
sg22
F288589.0
sg23
F1130461.0
sg24
F0.375
sg25
F0.0
sg26
F1130462.0
sg27
F2.733119650715548
ssS'BLACHMAN JEREMY M'
p50
(dp51
g3
F2475.0
sg4
F0.0
sg5
F84208.0
sg6
I00
sg7
F831809.0
sg8
F25.0
sg9
F0.0
sg10
F0.0
sg11
F2326.0
sg12
F0.0
sg13
F14.0
sg14
F272.0
sg15
F0.01050080775444265
sg16
F0.0
sg17
F850000.0
sg18
F954354.0
sg19
F2.0
sg20
F0.2
sg21
F189041.0
sg22
F248546.0
sg23
F2014835.0
sg24
F0.9398222940226171
sg25
F765313.0
sg26
F2.111201806455669
sg27
F3.419880344562598
ssS'SUNDE MARTIN'
p52
(dp53
g3
F2647.0
sg4
F0.0
sg5
F0.0
sg6
I00
sg7
F476451.0
sg8
F37.0
sg9
F0.0
sg10
F0.0
sg11
F2565.0
sg12
F0.0
sg13
F38.0
sg14
F111122.0
sg15
F0.014350453172205438
sg16
F0.0
sg17
F700000.0
sg18
F698920.0
sg19
F13.0
sg20
F0.358974358974359
sg21
F698920.0
sg22
F257486.0
sg23
F1545059.0
sg24
F0.9690332326283988
sg25
F0.0
sg26
F2.2106361090881514
sg27
F2.718587734526403
ssS'GIBBS DANA R'
p54
(dp55
g3
F169.0
sg4
F504610.0
sg5
F0.0
sg6
I00
sg7
F461912.0
sg8
F0.0
sg9
F0.0
sg10
F0.0
sg11
F23.0
sg12
F0.0
sg13
F12.0
sg14
F0.0
sg15
F0.0058823529411764705
sg16
F0.0
sg17
F0.0
sg18
F2218275.0
sg19
F0.0
sg20
F0.07692307692307693
sg21
F0.0
sg22
F0.0
sg23
F966522.0
sg24
F0.1411764705882353
sg25
F2218275.0
sg26
F0.43570908218814974
sg27
F1.0
ssS'LOWRY CHARLES P'
p56
(dp57
g3
F0.0
sg4
F0.0
sg5
F0.0
sg6
I00
sg7
F0.0
sg8
F0.0
sg9
F0.0
sg10
F-153686.0
sg11
F0.0
sg12
F0.0
sg13
F0.0
sg14
F0.0
sg15
F0.0
sg16
F0.0
sg17
F0.0
sg18
F372205.0
sg19
F0.0
sg20
F0.0
sg21
F153686.0
sg22
F0.0
sg23
F0.0
sg24
F0.0
sg25
F372205.0
sg26
F2.686684255492926e-06
sg27
F1.0
ssS'COLWELL WESLEY'
p58
(dp59
g3
F1758.0
sg4
F27610.0
sg5
F16514.0
sg6
I01
sg7
F0.0
sg8
F240.0
sg9
F-144062.0
sg10
F0.0
sg11
F1132.0
sg12
F0.0
sg13
F40.0
sg14
F101740.0
sg15
F0.13700966458214894
sg16
F0.0
sg17
F1200000.0
sg18
F698242.0
sg19
F11.0
sg20
F0.2926829268292683
sg21
F698242.0
sg22
F288542.0
sg23
F1490344.0
sg24
F0.6441159749857874
sg25
F0.0
sg26
F2.134421684141481
sg27
F4.158829013353296
ssS'MULLER MARK S'
p60
(dp61
g3
F136.0
sg4
F842924.0
sg5
F0.0
sg6
I00
sg7
F1725545.0
sg8
F12.0
sg9
F-719000.0
sg10
F0.0
sg11
F114.0
sg12
F0.0
sg13
F16.0
sg14
F947.0
sg15
F0.0948905109489051
sg16
F0.0
sg17
F1100000.0
sg18
F1416848.0
sg19
F0.0
sg20
F0.058823529411764705
sg21
F360528.0
sg22
F251654.0
sg23
F3202070.0
sg24
F0.8394160583941606
sg25
F1056320.0
sg26
F2.2599945371736863
sg27
F4.37106753293199
ssS'JACKSON CHARLENE R'
p62
(dp63
g3
F258.0
sg4
F0.0
sg5
F10181.0
sg6
I00
sg7
F0.0
sg8
F25.0
sg9
F0.0
sg10
F0.0
sg11
F117.0
sg12
F0.0
sg13
F56.0
sg14
F2435.0
sg15
F0.10038610038610038
sg16
F0.0
sg17
F250000.0
sg18
F725735.0
sg19
F19.0
sg20
F0.3508771929824561
sg21
F540672.0
sg22
F288558.0
sg23
F551174.0
sg24
F0.4555984555984556
sg25
F185063.0
sg26
F0.7594703859254605
sg27
F0.8663774132846316
ssS'WESTFAHL RICHARD K'
p64
(dp65
g3
F0.0
sg4
F0.0
sg5
F51870.0
sg6
I00
sg7
F256191.0
sg8
F0.0
sg9
F-10800.0
sg10
F0.0
sg11
F0.0
sg12
F0.0
sg13
F0.0
sg14
F401130.0
sg15
F0.0
sg16
F0.0
sg17
F0.0
sg18
F384930.0
sg19
F0.0
sg20
F0.0
sg21
F384930.0
sg22
F63744.0
sg23
F762135.0
sg24
F0.0
sg25
F0.0
sg26
F1.9799288703689752
sg27
F1.5687504902345282e-05
ssS'WALTERS GARETH W'
p66
(dp67
g3
F0.0
sg4
F53625.0
sg5
F33785.0
sg6
I00
sg7
F0.0
sg8
F0.0
sg9
F0.0
sg10
F0.0
sg11
F0.0
sg12
F0.0
sg13
F0.0
sg14
F0.0
sg15
F0.0
sg16
F0.0
sg17
F0.0
sg18
F1030329.0
sg19
F0.0
sg20
F0.0
sg21
F0.0
sg22
F0.0
sg23
F87410.0
sg24
F0.0
sg25
F1030329.0
sg26
F0.08483786747935128
sg27
F1.0
ssS'WALLS JR ROBERT H'
p68
(dp69
g3
F671.0
sg4
F0.0
sg5
F50936.0
sg6
I00
sg7
F540751.0
sg8
F17.0
sg9
F0.0
sg10
F0.0
sg11
F215.0
sg12
F0.0
sg13
F146.0
sg14
F2.0
sg15
F0.026785714285714284
sg16
F0.0
sg17
F850000.0
sg18
F5898997.0
sg19
F0.0
sg20
F0.006802721088435374
sg21
F1552453.0
sg22
F357091.0
sg23
F1798780.0
sg24
F0.32142857142857145
sg25
F4346544.0
sg26
F0.3049299219969222
sg27
F2.380341760666719
ssS'KITCHEN LOUISE'
p70
(dp71
g3
F8305.0
sg4
F0.0
sg5
F5774.0
sg6
I00
sg7
F0.0
sg8
F251.0
sg9
F0.0
sg10
F0.0
sg11
F3669.0
sg12
F0.0
sg13
F1728.0
sg14
F93925.0
sg15
F0.030339513604623163
sg16
F0.0
sg17
F3100000.0
sg18
F547143.0
sg19
F194.0
sg20
F0.11278195488721804
sg21
F466101.0
sg22
F271442.0
sg23
F3471141.0
sg24
F0.44184926559113896
sg25
F81042.0
sg26
F6.344110508385361
sg27
F11.420449228751524
ssS'CHAN RONNIE'
p72
(dp73
g3
F0.0
sg4
F0.0
sg5
F0.0
sg6
I00
sg7
F0.0
sg8
F0.0
sg9
F-98784.0
sg10
F-32460.0
sg11
F0.0
sg12
F0.0
sg13
F0.0
sg14
F0.0
sg15
F0.0
sg16
F98784.0
sg17
F0.0
sg18
F0.0
sg19
F0.0
sg20
F0.0
sg21
F32460.0
sg22
F0.0
sg23
F0.0
sg24
F0.0
sg25
F0.0
sg26
F1.0
sg27
F1.0
ssS'BELFER ROBERT'
p74
(dp75
g3
F0.0
sg4
F0.0
sg5
F3285.0
sg6
I00
sg7
F0.0
sg8
F0.0
sg9
F-102500.0
sg10
F-44093.0
sg11
F0.0
sg12
F0.0
sg13
F0.0
sg14
F0.0
sg15
F0.0
sg16
F102500.0
sg17
F0.0
sg18
F0.0
sg19
F0.0
sg20
F0.0
sg21
F44093.0
sg22
F0.0
sg23
F3285.0
sg24
F0.0
sg25
F0.0
sg26
F3286.0
sg27
F1.0
ssS'SHANKMAN JEFFREY A'
p76
(dp77
g3
F3221.0
sg4
F0.0
sg5
F178979.0
sg6
I00
sg7
F554422.0
sg8
F94.0
sg9
F0.0
sg10
F0.0
sg11
F1730.0
sg12
F0.0
sg13
F2681.0
sg14
F1191.0
sg15
F0.029484792054624457
sg16
F0.0
sg17
F2000000.0
sg18
F2072035.0
sg19
F83.0
sg20
F0.03131991051454139
sg21
F630137.0
sg22
F304110.0
sg23
F3038702.0
sg24
F0.537243947858473
sg25
F1441898.0
sg26
F1.46653002167916
sg27
F6.576549352045799
ssS'WODRASKA JOHN'
p78
(dp79
g3
F0.0
sg4
F0.0
sg5
F0.0
sg6
I00
sg7
F0.0
sg8
F0.0
sg9
F0.0
sg10
F0.0
sg11
F0.0
sg12
F0.0
sg13
F0.0
sg14
F189583.0
sg15
F0.0
sg16
F0.0
sg17
F0.0
sg18
F0.0
sg19
F0.0
sg20
F0.0
sg21
F0.0
sg22
F0.0
sg23
F189583.0
sg24
F0.0
sg25
F0.0
sg26
F189584.0
sg27
F1.0
ssS'BERGSIEKER RICHARD P'
p80
(dp81
g3
F383.0
sg4
F0.0
sg5
F59175.0
sg6
I00
sg7
F180250.0
sg8
F4.0
sg9
F-485813.0
sg10
F0.0
sg11
F233.0
sg12
F0.0
sg13
F59.0
sg14
F427316.0
sg15
F0.013020833333333334
sg16
F0.0
sg17
F250000.0
sg18
F659249.0
sg19
F0.0
sg20
F0.016666666666666666
sg21
F659249.0
sg22
F187922.0
sg23
F618850.0
sg24
F0.609375
sg25
F0.0
sg26
F0.938719757299962
sg27
F1.3303374254348856
ssS'URQUHART JOHN A'
p82
(dp83
g3
F0.0
sg4
F0.0
sg5
F228656.0
sg6
I00
sg7
F0.0
sg8
F0.0
sg9
F-36666.0
sg10
F0.0
sg11
F0.0
sg12
F0.0
sg13
F0.0
sg14
F0.0
sg15
F0.0
sg16
F36666.0
sg17
F0.0
sg18
F0.0
sg19
F0.0
sg20
F0.0
sg21
F0.0
sg22
F0.0
sg23
F228656.0
sg24
F0.0
sg25
F0.0
sg26
F228657.0
sg27
F1.0
ssS'BIBI PHILIPPE A'
p84
(dp85
g3
F1607.0
sg4
F0.0
sg5
F38559.0
sg6
I00
sg7
F369721.0
sg8
F23.0
sg9
F0.0
sg10
F0.0
sg11
F1336.0
sg12
F0.0
sg13
F40.0
sg14
F425688.0
sg15
F0.014925373134328358
sg16
F0.0
sg17
F1000000.0
sg18
F1843816.0
sg19
F8.0
sg20
F0.21951219512195122
sg21
F378082.0
sg22
F213625.0
sg23
F2047593.0
sg24
F0.8314676616915423
sg25
F1465734.0
sg26
F1.1105191024922756
sg27
F4.681082826996714
ssS'PIRO JIM'
p86
(dp87
g3
F58.0
sg4
F0.0
sg5
F0.0
sg6
I00
sg7
F0.0
sg8
F0.0
sg9
F0.0
sg10
F0.0
sg11
F3.0
sg12
F0.0
sg13
F16.0
sg14
F0.0
sg15
F0.01694915254237288
sg16
F0.0
sg17
F0.0
sg18
F47304.0
sg19
F1.0
sg20
F0.11764705882352941
sg21
F47304.0
sg22
F0.0
sg23
F0.0
sg24
F0.06779661016949153
sg25
F0.0
sg26
F2.1139414438220062e-05
sg27
F1.0
ssS'RIEKER PAULA H'
p88
(dp89
g3
F1328.0
sg4
F214678.0
sg5
F33271.0
sg6
I01
sg7
F0.0
sg8
F35.0
sg9
F-100000.0
sg10
F0.0
sg11
F1258.0
sg12
F0.0
sg13
F82.0
sg14
F1950.0
sg15
F0.02708803611738149
sg16
F0.0
sg17
F700000.0
sg18
F1918887.0
sg19
F48.0
sg20
F0.5903614457831325
sg21
F283649.0
sg22
F249201.0
sg23
F1099100.0
sg24
F0.9473288186606471
sg25
F1635238.0
sg26
F0.5727801726833458
sg27
F2.808970232983684
ssS'WHALEY DAVID A'
p90
(dp91
g3
F0.0
sg4
F0.0
sg5
F0.0
sg6
I00
sg7
F0.0
sg8
F0.0
sg9
F0.0
sg10
F0.0
sg11
F0.0
sg12
F0.0
sg13
F0.0
sg14
F0.0
sg15
F0.0
sg16
F0.0
sg17
F0.0
sg18
F98718.0
sg19
F0.0
sg20
F0.0
sg21
F0.0
sg22
F0.0
sg23
F0.0
sg24
F0.0
sg25
F98718.0
sg26
F1.0129762254479887e-05
sg27
F1.0
ssS'BECK SALLY W'
p92
(dp93
g3
F7315.0
sg4
F0.0
sg5
F37172.0
sg6
I00
sg7
F0.0
sg8
F144.0
sg9
F0.0
sg10
F0.0
sg11
F2639.0
sg12
F0.0
sg13
F4343.0
sg14
F566.0
sg15
F0.01981957353745216
sg16
F0.0
sg17
F700000.0
sg18
F126027.0
sg19
F386.0
sg20
F0.08908839779005524
sg21
F126027.0
sg22
F231330.0
sg23
F969068.0
sg24
F0.3608529250956807
sg25
F0.0
sg26
F7.689315072840956
sg27
F3.025971443516001
ssS'HAUG DAVID L'
p94
(dp95
g3
F573.0
sg4
F0.0
sg5
F475.0
sg6
I00
sg7
F0.0
sg8
F4.0
sg9
F0.0
sg10
F0.0
sg11
F471.0
sg12
F0.0
sg13
F19.0
sg14
F0.0
sg15
F0.008710801393728223
sg16
F0.0
sg17
F0.0
sg18
F2217299.0
sg19
F7.0
sg20
F0.4
sg21
F2217299.0
sg22
F0.0
sg23
F475.0
sg24
F0.8222996515679443
sg25
F0.0
sg26
F0.00021467550624633562
sg27
F1.0
ssS'ECHOLS JOHN B'
p96
(dp97
g3
F0.0
sg4
F0.0
sg5
F21530.0
sg6
I00
sg7
F2234774.0
sg8
F0.0
sg9
F0.0
sg10
F0.0
sg11
F0.0
sg12
F0.0
sg13
F0.0
sg14
F53775.0
sg15
F0.0
sg16
F0.0
sg17
F200000.0
sg18
F1008941.0
sg19
F0.0
sg20
F0.0
sg21
F407503.0
sg22
F182245.0
sg23
F2692324.0
sg24
F0.0
sg25
F601438.0
sg26
F2.668463598502193
sg27
F1.097423263062015
ssS'MENDELSOHN JOHN'
p98
(dp99
g3
F0.0
sg4
F0.0
sg5
F148.0
sg6
I00
sg7
F0.0
sg8
F0.0
sg9
F-103750.0
sg10
F0.0
sg11
F0.0
sg12
F0.0
sg13
F0.0
sg14
F0.0
sg15
F0.0
sg16
F103750.0
sg17
F0.0
sg18
F0.0
sg19
F0.0
sg20
F0.0
sg21
F0.0
sg22
F0.0
sg23
F148.0
sg24
F0.0
sg25
F0.0
sg26
F149.0
sg27
F1.0
ssS'HICKERSON GARY J'
p100
(dp101
g3
F1320.0
sg4
F0.0
sg5
F98849.0
sg6
I00
sg7
F69223.0
sg8
F40.0
sg9
F0.0
sg10
F0.0
sg11
F900.0
sg12
F0.0
sg13
F27.0
sg14
F1936.0
sg15
F0.031037093111279335
sg16
F0.0
sg17
F1700000.0
sg18
F441096.0
sg19
F1.0
sg20
F0.07142857142857142
sg21
F441096.0
sg22
F211788.0
sg23
F2081796.0
sg24
F0.6820590461771385
sg25
F0.0
sg26
F4.719590022149323
sg27
F8.02686164059512
ssS'CLINE KENNETH W'
p102
(dp103
g3
F0.0
sg4
F0.0
sg5
F0.0
sg6
I00
sg7
F0.0
sg8
F0.0
sg9
F0.0
sg10
F-472568.0
sg11
F0.0
sg12
F0.0
sg13
F0.0
sg14
F0.0
sg15
F0.0
sg16
F0.0
sg17
F0.0
sg18
F189518.0
sg19
F0.0
sg20
F0.0
sg21
F662086.0
sg22
F0.0
sg23
F0.0
sg24
F0.0
sg25
F0.0
sg26
F5.276515811079628e-06
sg27
F1.0
ssS'LEWIS RICHARD'
p104
(dp105
g3
F952.0
sg4
F0.0
sg5
F0.0
sg6
I00
sg7
F0.0
sg8
F10.0
sg9
F0.0
sg10
F0.0
sg11
F739.0
sg12
F0.0
sg13
F26.0
sg14
F0.0
sg15
F0.011542497376705142
sg16
F0.0
sg17
F0.0
sg18
F850477.0
sg19
F0.0
sg20
F0.037037037037037035
sg21
F0.0
sg22
F0.0
sg23
F0.0
sg24
F0.776495278069255
sg25
F850477.0
sg26
F1.1758093683787236e-06
sg27
F1.0
ssS'HAYES ROBERT E'
p106
(dp107
g3
F504.0
sg4
F7961.0
sg5
F0.0
sg6
I00
sg7
F0.0
sg8
F16.0
sg9
F0.0
sg10
F0.0
sg11
F50.0
sg12
F0.0
sg13
F12.0
sg14
F0.0
sg15
F0.033663366336633666
sg16
F0.0
sg17
F0.0
sg18
F151418.0
sg19
F0.0
sg20
F0.07692307692307693
sg21
F151418.0
sg22
F0.0
sg23
F7961.0
sg24
F0.100990099009901
sg25
F0.0
sg26
F0.05258256889822281
sg27
F1.0
ssS'KOPPER MICHAEL J'
p108
(dp109
g3
F0.0
sg4
F0.0
sg5
F118134.0
sg6
I01
sg7
F602671.0
sg8
F0.0
sg9
F0.0
sg10
F0.0
sg11
F0.0
sg12
F0.0
sg13
F0.0
sg14
F907502.0
sg15
F0.0
sg16
F0.0
sg17
F800000.0
sg18
F985032.0
sg19
F0.0
sg20
F0.0
sg21
F985032.0
sg22
F224305.0
sg23
F2652612.0
sg24
F0.0
sg25
F0.0
sg26
F2.692917902242869
sg27
F3.566560858826781
ssS'LEFF DANIEL P'
p110
(dp111
g3
F2822.0
sg4
F0.0
sg5
F0.0
sg6
I00
sg7
F1387399.0
sg8
F67.0
sg9
F0.0
sg10
F0.0
sg11
F2672.0
sg12
F0.0
sg13
F63.0
sg14
F3083.0
sg15
F0.024087849805171802
sg16
F0.0
sg17
F1000000.0
sg18
F360528.0
sg19
F14.0
sg20
F0.234375
sg21
F360528.0
sg22
F273746.0
sg23
F2664228.0
sg24
F0.946865037194474
sg25
F0.0
sg26
F7.389777243994242
sg27
F3.653011722502895
ssS'LAVORATO JOHN J'
p112
(dp113
g3
F7259.0
sg4
F0.0
sg5
F49537.0
sg6
I00
sg7
F2035380.0
sg8
F528.0
sg9
F0.0
sg10
F0.0
sg11
F3962.0
sg12
F0.0
sg13
F2585.0
sg14
F1552.0
sg15
F0.07286501377410469
sg16
F0.0
sg17
F8000000.0
sg18
F5167144.0
sg19
F411.0
sg20
F0.15931941221964424
sg21
F1008149.0
sg22
F339288.0
sg23
F10425757.0
sg24
F0.5458677685950413
sg25
F4158995.0
sg26
F2.017701845022735
sg27
F23.57872197448193
ssS'BERBERIAN DAVID'
p114
(dp115
g3
F0.0
sg4
F0.0
sg5
F11892.0
sg6
I00
sg7
F0.0
sg8
F0.0
sg9
F0.0
sg10
F0.0
sg11
F0.0
sg12
F0.0
sg13
F0.0
sg14
F0.0
sg15
F0.0
sg16
F0.0
sg17
F0.0
sg18
F2493616.0
sg19
F0.0
sg20
F0.0
sg21
F869220.0
sg22
F216582.0
sg23
F228474.0
sg24
F0.0
sg25
F1624396.0
sg26
F0.09162393422887316
sg27
F4.617167552393309e-06
ssS'DETMERING TIMOTHY J'
p116
(dp117
g3
F0.0
sg4
F875307.0
sg5
F52255.0
sg6
I00
sg7
F415657.0
sg8
F0.0
sg9
F-775241.0
sg10
F-315068.0
sg11
F0.0
sg12
F0.0
sg13
F0.0
sg14
F1105.0
sg15
F0.0
sg16
F0.0
sg17
F425000.0
sg18
F2027865.0
sg19
F0.0
sg20
F0.0
sg21
F315068.0
sg22
F210500.0
sg23
F1204583.0
sg24
F0.0
sg25
F2027865.0
sg26
F0.5940155809111647
sg27
F2.018997534453518
ssS'WAKEHAM JOHN'
p118
(dp119
g3
F0.0
sg4
F0.0
sg5
F103773.0
sg6
I00
sg7
F0.0
sg8
F0.0
sg9
F0.0
sg10
F0.0
sg11
F0.0
sg12
F0.0
sg13
F0.0
sg14
F0.0
sg15
F0.0
sg16
F109298.0
sg17
F0.0
sg18
F0.0
sg19
F0.0
sg20
F0.0
sg21
F0.0
sg22
F0.0
sg23
F213071.0
sg24
F0.0
sg25
F0.0
sg26
F213072.0
sg27
F1.0
ssS'POWERS WILLIAM'
p120
(dp121
g3
F653.0
sg4
F0.0
sg5
F0.0
sg6
I00
sg7
F0.0
sg8
F0.0
sg9
F-17500.0
sg10
F0.0
sg11
F12.0
sg12
F0.0
sg13
F26.0
sg14
F0.0
sg15
F0.0015290519877675841
sg16
F17500.0
sg17
F0.0
sg18
F0.0
sg19
F0.0
sg20
F0.037037037037037035
sg21
F0.0
sg22
F0.0
sg23
F0.0
sg24
F0.019877675840978593
sg25
F0.0
sg26
F1.0
sg27
F1.0
ssS'GOLD JOSEPH'
p122
(dp123
g3
F0.0
sg4
F0.0
sg5
F0.0
sg6
I00
sg7
F304805.0
sg8
F0.0
sg9
F0.0
sg10
F0.0
sg11
F0.0
sg12
F0.0
sg13
F0.0
sg14
F819288.0
sg15
F0.0
sg16
F0.0
sg17
F750000.0
sg18
F877611.0
sg19
F0.0
sg20
F0.0
sg21
F441096.0
sg22
F272880.0
sg23
F2146973.0
sg24
F0.0
sg25
F436515.0
sg26
F2.4463817723549814
sg27
F2.74845445450581
ssS'BANNANTINE JAMES M'
p124
(dp125
g3
F566.0
sg4
F0.0
sg5
F56301.0
sg6
I00
sg7
F0.0
sg8
F39.0
sg9
F-5104.0
sg10
F-560222.0
sg11
F465.0
sg12
F0.0
sg13
F29.0
sg14
F864523.0
sg15
F0.07054673721340388
sg16
F0.0
sg17
F0.0
sg18
F5243487.0
sg19
F0.0
sg20
F0.03333333333333333
sg21
F1757552.0
sg22
F477.0
sg23
F916197.0
sg24
F0.8218694885361552
sg25
F4046157.0
sg26
F0.1747306373162292
sg27
F0.0020920502092050207
ssS'DUNCAN JOHN H'
p126
(dp127
g3
F0.0
sg4
F0.0
sg5
F0.0
sg6
I00
sg7
F0.0
sg8
F0.0
sg9
F-25000.0
sg10
F0.0
sg11
F0.0
sg12
F0.0
sg13
F0.0
sg14
F0.0
sg15
F0.0
sg16
F102492.0
sg17
F0.0
sg18
F371750.0
sg19
F0.0
sg20
F0.0
sg21
F0.0
sg22
F0.0
sg23
F77492.0
sg24
F0.0
sg25
F371750.0
sg26
F0.20845404585327276
sg27
F1.0
ssS'SHAPIRO RICHARD S'
p128
(dp129
g3
F15149.0
sg4
F0.0
sg5
F137767.0
sg6
I00
sg7
F0.0
sg8
F74.0
sg9
F0.0
sg10
F0.0
sg11
F4527.0
sg12
F0.0
sg13
F1215.0
sg14
F705.0
sg15
F0.0049504950495049506
sg16
F0.0
sg17
F650000.0
sg18
F987001.0
sg19
F65.0
sg20
F0.054276315789473686
sg21
F379164.0
sg22
F269076.0
sg23
F1057548.0
sg24
F0.2988778877887789
sg25
F607837.0
sg26
F1.0714760456412449
sg27
F2.415669120734957
ssS'SHERRIFF JOHN R'
p130
(dp131
g3
F3187.0
sg4
F0.0
sg5
F0.0
sg6
I00
sg7
F554422.0
sg8
F28.0
sg9
F0.0
sg10
F0.0
sg11
F2103.0
sg12
F0.0
sg13
F92.0
sg14
F1852186.0
sg15
F0.009096612296110414
sg16
F0.0
sg17
F1500000.0
sg18
F3128982.0
sg19
F23.0
sg20
F0.25806451612903225
sg21
F1293424.0
sg22
F428780.0
sg23
F4335388.0
sg24
F0.6599749058971142
sg25
F1835558.0
sg26
F1.3855585025549835
sg27
F3.4982916687073353
ssS'SHELBY REX'
p132
(dp133
g3
F225.0
sg4
F0.0
sg5
F22884.0
sg6
I01
sg7
F0.0
sg8
F13.0
sg9
F-4167.0
sg10
F0.0
sg11
F91.0
sg12
F0.0
sg13
F39.0
sg14
F1573324.0
sg15
F0.061946902654867256
sg16
F0.0
sg17
F200000.0
sg18
F2493616.0
sg19
F14.0
sg20
F0.375
sg21
F869220.0
sg22
F211844.0
sg23
F2003885.0
sg24
F0.40707964601769914
sg25
F1624396.0
sg26
F0.8036061672662642
sg27
F0.9440911987538059
ssS'LEMAISTRE CHARLES'
p134
(dp135
g3
F0.0
sg4
F0.0
sg5
F0.0
sg6
I00
sg7
F0.0
sg8
F0.0
sg9
F-25000.0
sg10
F0.0
sg11
F0.0
sg12
F0.0
sg13
F0.0
sg14
F0.0
sg15
F0.0
sg16
F112492.0
sg17
F0.0
sg18
F412878.0
sg19
F0.0
sg20
F0.0
sg21
F0.0
sg22
F0.0
sg23
F87492.0
sg24
F0.0
sg25
F412878.0
sg26
F0.21190954250518917
sg27
F1.0
ssS'DEFFNER JOSEPH M'
p136
(dp137
g3
F714.0
sg4
F0.0
sg5
F41626.0
sg6
I00
sg7
F335349.0
sg8
F115.0
sg9
F0.0
sg10
F0.0
sg11
F552.0
sg12
F0.0
sg13
F74.0
sg14
F25553.0
sg15
F0.16223776223776223
sg16
F0.0
sg17
F600000.0
sg18
F159211.0
sg19
F4.0
sg20
F0.06666666666666667
sg21
F141833.0
sg22
F206121.0
sg23
F1208649.0
sg24
F0.7734265734265734
sg25
F17378.0
sg26
F7.591450393186443
sg27
F2.9109022811732856
ssS'KISHKILL JOSEPH G'
p138
(dp139
g3
F0.0
sg4
F0.0
sg5
F116335.0
sg6
I00
sg7
F0.0
sg8
F0.0
sg9
F-51042.0
sg10
F0.0
sg11
F0.0
sg12
F0.0
sg13
F0.0
sg14
F465357.0
sg15
F0.0
sg16
F0.0
sg17
F0.0
sg18
F1034346.0
sg19
F0.0
sg20
F0.0
sg21
F1034346.0
sg22
F174246.0
sg23
F704896.0
sg24
F0.0
sg25
F0.0
sg26
F0.681489867520281
sg27
F5.738979724184635e-06
ssS'WHALLEY LAWRENCE G'
p140
(dp141
g3
F6019.0
sg4
F0.0
sg5
F57838.0
sg6
I00
sg7
F808346.0
sg8
F186.0
sg9
F0.0
sg10
F0.0
sg11
F3920.0
sg12
F0.0
sg13
F556.0
sg14
F301026.0
sg15
F0.03106312292358804
sg16
F0.0
sg17
F3000000.0
sg18
F6079137.0
sg19
F24.0
sg20
F0.04488330341113106
sg21
F2796177.0
sg22
F510364.0
sg23
F4677574.0
sg24
F0.651328903654485
sg25
F3282960.0
sg26
F0.769447082793646
sg27
F5.878147992123284
ssS'MCCARTY DANNY J'
p142
(dp143
g3
F1433.0
sg4
F0.0
sg5
F0.0
sg6
I00
sg7
F0.0
sg8
F25.0
sg9
F0.0
sg10
F0.0
sg11
F508.0
sg12
F0.0
sg13
F215.0
sg14
F0.0
sg15
F0.01813110181311018
sg16
F0.0
sg17
F0.0
sg18
F758931.0
sg19
F2.0
sg20
F0.013888888888888888
sg21
F94556.0
sg22
F0.0
sg23
F0.0
sg24
F0.35495118549511856
sg25
F664375.0
sg26
F1.3176411061860615e-06
sg27
F1.0
ssS'MCCONNELL MICHAEL S'
p144
(dp145
g3
F3329.0
sg4
F0.0
sg5
F81364.0
sg6
I00
sg7
F554422.0
sg8
F92.0
sg9
F0.0
sg10
F0.0
sg11
F2189.0
sg12
F0.0
sg13
F2742.0
sg14
F540.0
sg15
F0.027927927927927927
sg16
F0.0
sg17
F1100000.0
sg18
F3101279.0
sg19
F194.0
sg20
F0.07109004739336493
sg21
F1478269.0
sg22
F365038.0
sg23
F2101364.0
sg24
F0.6576576576576577
sg25
F1623010.0
sg26
F0.6775799024918743
sg27
F3.013379392338901
ssS'DELAINEY DAVID W'
p146
(dp147
g3
F3093.0
sg4
F0.0
sg5
F86174.0
sg6
I01
sg7
F1294981.0
sg8
F66.0
sg9
F0.0
sg10
F0.0
sg11
F2097.0
sg12
F0.0
sg13
F3069.0
sg14
F1661.0
sg15
F0.02165481577246283
sg16
F0.0
sg17
F3000000.0
sg18
F3614261.0
sg19
F609.0
sg20
F0.1986970684039088
sg21
F1323148.0
sg22
F365163.0
sg23
F4747979.0
sg24
F0.6780866192630899
sg25
F2291113.0
sg26
F1.3136789751268725
sg27
F8.21548947869998
ssS'SULLIVAN-SHAKLOVITZ COLLEEN'
p148
(dp149
g3
F0.0
sg4
F181993.0
sg5
F0.0
sg6
I00
sg7
F554422.0
sg8
F0.0
sg9
F0.0
sg10
F0.0
sg11
F0.0
sg12
F0.0
sg13
F0.0
sg14
F162.0
sg15
F0.0
sg16
F0.0
sg17
F100000.0
sg18
F1362375.0
sg19
F0.0
sg20
F0.0
sg21
F0.0
sg22
F162779.0
sg23
F999356.0
sg24
F0.0
sg25
F1362375.0
sg26
F0.7335397863732186
sg27
F0.6143322275463816
ssS'WROBEL BRUCE'
p150
(dp151
g3
F0.0
sg4
F0.0
sg5
F0.0
sg6
I00
sg7
F0.0
sg8
F0.0
sg9
F0.0
sg10
F0.0
sg11
F0.0
sg12
F0.0
sg13
F0.0
sg14
F0.0
sg15
F0.0
sg16
F0.0
sg17
F0.0
sg18
F139130.0
sg19
F0.0
sg20
F0.0
sg21
F0.0
sg22
F0.0
sg23
F0.0
sg24
F0.0
sg25
F139130.0
sg26
F7.187470800899871e-06
sg27
F1.0
ssS'LINDHOLM TOD A'
p152
(dp153
g3
F0.0
sg4
F204075.0
sg5
F57727.0
sg6
I00
sg7
F175000.0
sg8
F0.0
sg9
F0.0
sg10
F0.0
sg11
F0.0
sg12
F0.0
sg13
F0.0
sg14
F2630.0
sg15
F0.0
sg16
F0.0
sg17
F200000.0
sg18
F3064208.0
sg19
F0.0
sg20
F0.0
sg21
F514847.0
sg22
F236457.0
sg23
F875889.0
sg24
F0.0
sg25
F2549361.0
sg26
F0.28584538456743647
sg27
F0.8458203993943956
ssS'MEYER JEROME J'
p154
(dp155
g3
F0.0
sg4
F0.0
sg5
F2151.0
sg6
I00
sg7
F0.0
sg8
F0.0
sg9
F-38346.0
sg10
F0.0
sg11
F0.0
sg12
F0.0
sg13
F0.0
sg14
F0.0
sg15
F0.0
sg16
F38346.0
sg17
F0.0
sg18
F0.0
sg19
F0.0
sg20
F0.0
sg21
F0.0
sg22
F0.0
sg23
F2151.0
sg24
F0.0
sg25
F0.0
sg26
F2152.0
sg27
F1.0
ssS'LAY KENNETH L'
p156
(dp157
g3
F4273.0
sg4
F202911.0
sg5
F99832.0
sg6
I01
sg7
F3600000.0
sg8
F123.0
sg9
F-300000.0
sg10
F0.0
sg11
F2411.0
sg12
F81525000.0
sg13
F36.0
sg14
F10359729.0
sg15
F0.02901263453439401
sg16
F0.0
sg17
F7000000.0
sg18
F49110078.0
sg19
F16.0
sg20
F0.4594594594594595
sg21
F14761694.0
sg22
F1072321.0
sg23
F103559793.0
sg24
F0.5643425362657931
sg25
F34348384.0
sg26
F2.1087279049174406
sg27
F6.527890876061481
ssS'BUTTS ROBERT H'
p158
(dp159
g3
F0.0
sg4
F0.0
sg5
F9410.0
sg6
I00
sg7
F175000.0
sg8
F0.0
sg9
F-75000.0
sg10
F0.0
sg11
F0.0
sg12
F0.0
sg13
F0.0
sg14
F150656.0
sg15
F0.0
sg16
F0.0
sg17
F750000.0
sg18
F417619.0
sg19
F0.0
sg20
F0.0
sg21
F417619.0
sg22
F261516.0
sg23
F1271582.0
sg24
F0.0
sg25
F0.0
sg26
F3.0448326229586704
sg27
F2.8678862177219835
ssS'OLSON CINDY K'
p160
(dp161
g3
F1184.0
sg4
F77716.0
sg5
F63791.0
sg6
I00
sg7
F100000.0
sg8
F20.0
sg9
F0.0
sg10
F0.0
sg11
F856.0
sg12
F0.0
sg13
F52.0
sg14
F972.0
sg15
F0.017721518987341773
sg16
F0.0
sg17
F750000.0
sg18
F2606763.0
sg19
F15.0
sg20
F0.3018867924528302
sg21
F969729.0
sg22
F329078.0
sg23
F1321557.0
sg24
F0.7232067510548523
sg25
F1637034.0
sg26
F0.5069726296665137
sg27
F2.2790910389298618
ssS'MCDONALD REBECCA'
p162
(dp163
g3
F894.0
sg4
F0.0
sg5
F0.0
sg6
I00
sg7
F0.0
sg8
F54.0
sg9
F0.0
sg10
F0.0
sg11
F720.0
sg12
F0.0
sg13
F13.0
sg14
F0.0
sg15
F0.061452513966480445
sg16
F0.0
sg17
F0.0
sg18
F1691366.0
sg19
F1.0
sg20
F0.14285714285714285
sg21
F934065.0
sg22
F0.0
sg23
F0.0
sg24
F0.8055865921787709
sg25
F757301.0
sg26
F5.912377384683513e-07
sg27
F1.0
ssS'CUMBERLAND MICHAEL S'
p164
(dp165
g3
F0.0
sg4
F0.0
sg5
F22344.0
sg6
I00
sg7
F275000.0
sg8
F0.0
sg9
F0.0
sg10
F0.0
sg11
F0.0
sg12
F0.0
sg13
F0.0
sg14
F713.0
sg15
F0.0
sg16
F0.0
sg17
F325000.0
sg18
F207940.0
sg19
F0.0
sg20
F0.0
sg21
F207940.0
sg22
F184899.0
sg23
F807956.0
sg24
F0.0
sg25
F0.0
sg26
F3.8855107939271236
sg27
F1.757712276906436
ssS'GAHN ROBERT S'
p166
(dp167
g3
F0.0
sg4
F73122.0
sg5
F50080.0
sg6
I00
sg7
F0.0
sg8
F0.0
sg9
F-1042.0
sg10
F0.0
sg11
F0.0
sg12
F0.0
sg13
F0.0
sg14
F76547.0
sg15
F0.0
sg16
F0.0
sg17
F509870.0
sg18
F318607.0
sg19
F0.0
sg20
F0.0
sg21
F235370.0
sg22
F192008.0
sg23
F900585.0
sg24
F0.0
sg25
F83237.0
sg26
F2.8266270777883795
sg27
F2.6554536506101276
ssS'MCCLELLAN GEORGE'
p168
(dp169
g3
F1744.0
sg4
F0.0
sg5
F228763.0
sg6
I00
sg7
F0.0
sg8
F52.0
sg9
F-125000.0
sg10
F0.0
sg11
F1469.0
sg12
F0.0
sg13
F49.0
sg14
F51587.0
sg15
F0.03037249283667622
sg16
F0.0
sg17
F900000.0
sg18
F947861.0
sg19
F0.0
sg20
F0.02
sg21
F441096.0
sg22
F263413.0
sg23
F1318763.0
sg24
F0.8424068767908309
sg25
F506765.0
sg26
F1.3913037973882274
sg27
F3.416678688300546
ssS'HERMANN ROBERT J'
p170
(dp171
g3
F0.0
sg4
F0.0
sg5
F48357.0
sg6
I00
sg7
F150000.0
sg8
F0.0
sg9
F-280000.0
sg10
F0.0
sg11
F0.0
sg12
F0.0
sg13
F0.0
sg14
F416441.0
sg15
F0.0
sg16
F0.0
sg17
F700000.0
sg18
F668132.0
sg19
F0.0
sg20
F0.0
sg21
F480632.0
sg22
F262663.0
sg23
F1297461.0
sg24
F0.0
sg25
F187500.0
sg26
F1.9419217431259943
sg27
F2.6650054822891605
ssS'SCRIMSHAW MATTHEW'
p172
(dp173
g3
F0.0
sg4
F0.0
sg5
F0.0
sg6
I00
sg7
F0.0
sg8
F0.0
sg9
F0.0
sg10
F0.0
sg11
F0.0
sg12
F0.0
sg13
F0.0
sg14
F0.0
sg15
F0.0
sg16
F0.0
sg17
F0.0
sg18
F759557.0
sg19
F0.0
sg20
F0.0
sg21
F0.0
sg22
F0.0
sg23
F0.0
sg24
F0.0
sg25
F759557.0
sg26
F1.316555154445085e-06
sg27
F1.0
ssS'GATHMANN WILLIAM D'
p174
(dp175
g3
F0.0
sg4
F0.0
sg5
F0.0
sg6
I00
sg7
F0.0
sg8
F0.0
sg9
F0.0
sg10
F-72419.0
sg11
F0.0
sg12
F0.0
sg13
F0.0
sg14
F0.0
sg15
F0.0
sg16
F0.0
sg17
F0.0
sg18
F1945360.0
sg19
F0.0
sg20
F0.0
sg21
F264013.0
sg22
F0.0
sg23
F0.0
sg24
F0.0
sg25
F1753766.0
sg26
F5.140434089097088e-07
sg27
F1.0
ssS'HAEDICKE MARK E'
p176
(dp177
g3
F4009.0
sg4
F2157527.0
sg5
F76169.0
sg6
I00
sg7
F983346.0
sg8
F180.0
sg9
F-934484.0
sg10
F-329825.0
sg11
F1847.0
sg12
F0.0
sg13
F1941.0
sg14
F52382.0
sg15
F0.04513715710723192
sg16
F0.0
sg17
F1150000.0
sg18
F803094.0
sg19
F61.0
sg20
F0.03192584963954686
sg21
F524169.0
sg22
F374125.0
sg23
F3859065.0
sg24
F0.4608478802992519
sg25
F608750.0
sg26
F4.805242219164607
sg27
F3.0738334144111876
ssS'BOWEN JR RAYMOND M'
p178
(dp179
g3
F1858.0
sg4
F0.0
sg5
F65907.0
sg6
I01
sg7
F974293.0
sg8
F140.0
sg9
F-833.0
sg10
F0.0
sg11
F1593.0
sg12
F0.0
sg13
F27.0
sg14
F1621.0
sg15
F0.07584722969338353
sg16
F0.0
sg17
F1350000.0
sg18
F252055.0
sg19
F15.0
sg20
F0.5714285714285714
sg21
F252055.0
sg22
F278601.0
sg23
F2669589.0
sg24
F0.8574502420656267
sg25
F0.0
sg26
F10.591257498333704
sg27
F4.845625659543004
ssS'GILLIS JOHN'
p180
(dp181
g3
F0.0
sg4
F0.0
sg5
F0.0
sg6
I00
sg7
F0.0
sg8
F0.0
sg9
F0.0
sg10
F0.0
sg11
F0.0
sg12
F0.0
sg13
F0.0
sg14
F0.0
sg15
F0.0
sg16
F0.0
sg17
F0.0
sg18
F85641.0
sg19
F0.0
sg20
F0.0
sg21
F75838.0
sg22
F0.0
sg23
F0.0
sg24
F0.0
sg25
F9803.0
sg26
F1.1676513860021952e-05
sg27
F1.0
ssS'FITZGERALD JAY L'
p182
(dp183
g3
F936.0
sg4
F0.0
sg5
F23870.0
sg6
I00
sg7
F556416.0
sg8
F1.0
sg9
F0.0
sg10
F0.0
sg11
F723.0
sg12
F0.0
sg13
F16.0
sg14
F285414.0
sg15
F0.0021344717182497333
sg16
F0.0
sg17
F350000.0
sg18
F1621236.0
sg19
F8.0
sg20
F0.5294117647058824
sg21
F956775.0
sg22
F199157.0
sg23
F1414857.0
sg24
F0.7726787620064034
sg25
F664461.0
sg26
F0.8727027572156323
sg27
F1.7574036694483777
ssS'MORAN MICHAEL P'
p184
(dp185
g3
F672.0
sg4
F0.0
sg5
F0.0
sg6
I00
sg7
F0.0
sg8
F0.0
sg9
F0.0
sg10
F0.0
sg11
F127.0
sg12
F0.0
sg13
F19.0
sg14
F0.0
sg15
F0.0014858841010401188
sg16
F0.0
sg17
F0.0
sg18
F221141.0
sg19
F0.0
sg20
F0.05
sg21
F161602.0
sg22
F0.0
sg23
F0.0
sg24
F0.1901931649331352
sg25
F59539.0
sg26
F4.521981351348907e-06
sg27
F1.0
ssS'REDMOND BRIAN L'
p186
(dp187
g3
F1671.0
sg4
F0.0
sg5
F14689.0
sg6
I00
sg7
F0.0
sg8
F204.0
sg9
F0.0
sg10
F0.0
sg11
F1063.0
sg12
F0.0
sg13
F221.0
sg14
F0.0
sg15
F0.12260765550239235
sg16
F0.0
sg17
F0.0
sg18
F7890324.0
sg19
F49.0
sg20
F0.22522522522522523
sg21
F381285.0
sg22
F96840.0
sg23
F111529.0
sg24
F0.6363636363636364
sg25
F7509039.0
sg26
F0.014135032460640087
sg27
F1.03262048099462e-05
ssS'BAZELIDES PHILIP J'
p188
(dp189
g3
F0.0
sg4
F684694.0
sg5
F0.0
sg6
I00
sg7
F93750.0
sg8
F0.0
sg9
F0.0
sg10
F0.0
sg11
F0.0
sg12
F0.0
sg13
F0.0
sg14
F874.0
sg15
F0.0
sg16
F0.0
sg17
F0.0
sg18
F1599641.0
sg19
F0.0
sg20
F0.0
sg21
F0.0
sg22
F80818.0
sg23
F860136.0
sg24
F0.0
sg25
F1599641.0
sg26
F0.5377059367033373
sg27
F1.2373328054046696e-05
ssS'BELDEN TIMOTHY N'
p190
(dp191
g3
F7991.0
sg4
F2144013.0
sg5
F17355.0
sg6
I01
sg7
F0.0
sg8
F228.0
sg9
F-2334434.0
sg10
F0.0
sg11
F5521.0
sg12
F0.0
sg13
F484.0
sg14
F210698.0
sg15
F0.028653653653653653
sg16
F0.0
sg17
F5249999.0
sg18
F1110705.0
sg19
F108.0
sg20
F0.22474226804123712
sg21
F157569.0
sg22
F213999.0
sg23
F5501630.0
sg24
F0.6909409409409409
sg25
F953136.0
sg26
F4.953273863650687
sg27
F24.53271028037383
ssS'DURAN WILLIAM D'
p192
(dp193
g3
F904.0
sg4
F0.0
sg5
F25785.0
sg6
I00
sg7
F1105218.0
sg8
F106.0
sg9
F0.0
sg10
F0.0
sg11
F599.0
sg12
F0.0
sg13
F12.0
sg14
F1568.0
sg15
F0.11823204419889503
sg16
F0.0
sg17
F750000.0
sg18
F1640910.0
sg19
F3.0
sg20
F0.3076923076923077
sg21
F189041.0
sg22
F210692.0
sg23
F2093263.0
sg24
F0.6629834254143646
sg25
F1451869.0
sg26
F1.2756718676393783
sg27
F3.5596863683178843
ssS'THORN TERENCE H'
p194
(dp195
g3
F266.0
sg4
F16586.0
sg5
F46145.0
sg6
I00
sg7
F200000.0
sg8
F0.0
sg9
F0.0
sg10
F0.0
sg11
F73.0
sg12
F0.0
sg13
F41.0
sg14
F426629.0
sg15
F0.003745318352059925
sg16
F0.0
sg17
F0.0
sg18
F4817796.0
sg19
F0.0
sg20
F0.023809523809523808
sg21
F365320.0
sg22
F222093.0
sg23
F911453.0
sg24
F0.27715355805243447
sg25
F4452476.0
sg26
F0.1891848079111677
sg27
F4.502597999045449e-06
ssS'FASTOW ANDREW S'
p196
(dp197
g3
F0.0
sg4
F0.0
sg5
F55921.0
sg6
I01
sg7
F1736055.0
sg8
F0.0
sg9
F-1386055.0
sg10
F0.0
sg11
F0.0
sg12
F0.0
sg13
F0.0
sg14
F277464.0
sg15
F0.0
sg16
F0.0
sg17
F1300000.0
sg18
F1794412.0
sg19
F0.0
sg20
F0.0
sg21
F1794412.0
sg22
F440698.0
sg23
F2424083.0
sg24
F0.0
sg25
F0.0
sg26
F1.350906396687942
sg27
F2.9498614700736785
ssS'FOY JOE'
p198
(dp199
g3
F57.0
sg4
F181755.0
sg5
F0.0
sg6
I00
sg7
F0.0
sg8
F0.0
sg9
F0.0
sg10
F0.0
sg11
F2.0
sg12
F0.0
sg13
F13.0
sg14
F0.0
sg15
F0.017241379310344827
sg16
F0.0
sg17
F0.0
sg18
F343434.0
sg19
F0.0
sg20
F0.07142857142857142
sg21
F0.0
sg22
F0.0
sg23
F181755.0
sg24
F0.05172413793103448
sg25
F343434.0
sg26
F0.5292296941197024
sg27
F1.0
ssS'CALGER CHRISTOPHER F'
p200
(dp201
g3
F2598.0
sg4
F0.0
sg5
F35818.0
sg6
I01
sg7
F375304.0
sg8
F199.0
sg9
F-262500.0
sg10
F0.0
sg11
F2188.0
sg12
F0.0
sg13
F144.0
sg14
F486.0
sg15
F0.07695267410542517
sg16
F0.0
sg17
F1250000.0
sg18
F126027.0
sg19
F25.0
sg20
F0.1793103448275862
sg21
F126027.0
sg22
F240189.0
sg23
F1639297.0
sg24
F0.8422470180838784
sg25
F0.0
sg26
F13.007411051512362
sg27
F5.204217494483534
ssS'RICE KENNETH D'
p202
(dp203
g3
F905.0
sg4
F0.0
sg5
F46950.0
sg6
I01
sg7
F1617011.0
sg8
F42.0
sg9
F-3504386.0
sg10
F0.0
sg11
F864.0
sg12
F0.0
sg13
F18.0
sg14
F174839.0
sg15
F0.04746136865342163
sg16
F0.0
sg17
F1750000.0
sg18
F22542539.0
sg19
F4.0
sg20
F0.2631578947368421
sg21
F2748364.0
sg22
F420636.0
sg23
F505050.0
sg24
F0.9547461368653422
sg25
F19794175.0
sg26
F0.02240435194969156
sg27
F4.160359169545237
ssS'KAMINSKI WINCENTY J'
p204
(dp205
g3
F4607.0
sg4
F0.0
sg5
F83585.0
sg6
I00
sg7
F323466.0
sg8
F41.0
sg9
F0.0
sg10
F0.0
sg11
F583.0
sg12
F0.0
sg13
F14368.0
sg14
F4669.0
sg15
F0.009114583333333334
sg16
F0.0
sg17
F400000.0
sg18
F976037.0
sg19
F171.0
sg20
F0.011970213654394877
sg21
F126027.0
sg22
F275101.0
sg23
F1086821.0
sg24
F0.1267361111111111
sg25
F850010.0
sg26
F1.113503777516859
sg27
F1.4540097854613925
ssS'LOCKHART EUGENE E'
p206
(dp207
g3
F0.0
sg4
F0.0
sg5
F0.0
sg6
I00
sg7
F0.0
sg8
F0.0
sg9
F0.0
sg10
F0.0
sg11
F0.0
sg12
F0.0
sg13
F0.0
sg14
F0.0
sg15
F0.0
sg16
F0.0
sg17
F0.0
sg18
F0.0
sg19
F0.0
sg20
F0.0
sg21
F0.0
sg22
F0.0
sg23
F0.0
sg24
F0.0
sg25
F0.0
sg26
F1.0
sg27
F1.0
ssS'COX DAVID'
p208
(dp209
g3
F102.0
sg4
F0.0
sg5
F27861.0
sg6
I00
sg7
F0.0
sg8
F0.0
sg9
F-41250.0
sg10
F0.0
sg11
F71.0
sg12
F0.0
sg13
F33.0
sg14
F494.0
sg15
F0.009708737864077669
sg16
F0.0
sg17
F800000.0
sg18
F495633.0
sg19
F4.0
sg20
F0.14705882352941177
sg21
F378082.0
sg22
F314288.0
sg23
F1101393.0
sg24
F0.6990291262135923
sg25
F117551.0
sg26
F2.2221921821343975
sg27
F2.5454311159474243
ssS'OVERDYKE JR JERE C'
p210
(dp211
g3
F0.0
sg4
F0.0
sg5
F18834.0
sg6
I00
sg7
F135836.0
sg8
F0.0
sg9
F0.0
sg10
F0.0
sg11
F0.0
sg12
F0.0
sg13
F0.0
sg14
F176.0
sg15
F0.0
sg16
F0.0
sg17
F0.0
sg18
F7307594.0
sg19
F0.0
sg20
F0.0
sg21
F2041016.0
sg22
F94941.0
sg23
F249787.0
sg24
F0.0
sg25
F5266578.0
sg26
F0.03418197094940264
sg27
F1.053274630827242e-05
ssS'PEREIRA PAULO V. FERRAZ'
p212
(dp213
g3
F0.0
sg4
F0.0
sg5
F27942.0
sg6
I00
sg7
F0.0
sg8
F0.0
sg9
F-101250.0
sg10
F0.0
sg11
F0.0
sg12
F0.0
sg13
F0.0
sg14
F0.0
sg15
F0.0
sg16
F101250.0
sg17
F0.0
sg18
F0.0
sg19
F0.0
sg20
F0.0
sg21
F0.0
sg22
F0.0
sg23
F27942.0
sg24
F0.0
sg25
F0.0
sg26
F27943.0
sg27
F1.0
ssS'STABLER FRANK'
p214
(dp215
g3
F0.0
sg4
F0.0
sg5
F16514.0
sg6
I00
sg7
F0.0
sg8
F0.0
sg9
F0.0
sg10
F0.0
sg11
F0.0
sg12
F0.0
sg13
F0.0
sg14
F356071.0
sg15
F0.0
sg16
F0.0
sg17
F500000.0
sg18
F511734.0
sg19
F0.0
sg20
F0.0
sg21
F511734.0
sg22
F239502.0
sg23
F1112087.0
sg24
F0.0
sg25
F0.0
sg26
F2.1731716611136624
sg27
F2.0876606973607847
ssS'SKILLING JEFFREY K'
p216
(dp217
g3
F3627.0
sg4
F0.0
sg5
F29336.0
sg6
I01
sg7
F1920000.0
sg8
F88.0
sg9
F0.0
sg10
F0.0
sg11
F2042.0
sg12
F0.0
sg13
F108.0
sg14
F22122.0
sg15
F0.024531422271223815
sg16
F0.0
sg17
F5600000.0
sg18
F26093672.0
sg19
F30.0
sg20
F0.28440366972477066
sg21
F6843672.0
sg22
F1111258.0
sg23
F8682716.0
sg24
F0.5631201764057332
sg25
F19250000.0
sg26
F0.33275181305445195
sg27
F5.039330165155018
ssS'BLAKE JR. NORMAN P'
p218
(dp219
g3
F0.0
sg4
F0.0
sg5
F1279.0
sg6
I00
sg7
F0.0
sg8
F0.0
sg9
F-113784.0
sg10
F0.0
sg11
F0.0
sg12
F0.0
sg13
F0.0
sg14
F0.0
sg15
F0.0
sg16
F113784.0
sg17
F0.0
sg18
F0.0
sg19
F0.0
sg20
F0.0
sg21
F0.0
sg22
F0.0
sg23
F1279.0
sg24
F0.0
sg25
F0.0
sg26
F1280.0
sg27
F1.0
ssS'SHERRICK JEFFREY B'
p220
(dp221
g3
F613.0
sg4
F0.0
sg5
F0.0
sg6
I00
sg7
F0.0
sg8
F39.0
sg9
F0.0
sg10
F0.0
sg11
F583.0
sg12
F0.0
sg13
F25.0
sg14
F0.0
sg15
F0.06514657980456026
sg16
F0.0
sg17
F0.0
sg18
F1832468.0
sg19
F18.0
sg20
F0.7307692307692307
sg21
F405999.0
sg22
F0.0
sg23
F0.0
sg24
F0.9511400651465798
sg25
F1426469.0
sg26
F5.457118237743722e-07
sg27
F1.0
ssS'PRENTICE JAMES'
p222
(dp223
g3
F0.0
sg4
F564348.0
sg5
F0.0
sg6
I00
sg7
F0.0
sg8
F0.0
sg9
F0.0
sg10
F0.0
sg11
F0.0
sg12
F0.0
sg13
F0.0
sg14
F0.0
sg15
F0.0
sg16
F0.0
sg17
F0.0
sg18
F1095040.0
sg19
F0.0
sg20
F0.0
sg21
F208809.0
sg22
F0.0
sg23
F564348.0
sg24
F0.0
sg25
F886231.0
sg26
F0.5153679177309343
sg27
F1.0
ssS'GRAY RODNEY'
p224
(dp225
g3
F0.0
sg4
F93585.0
sg5
F0.0
sg6
I00
sg7
F365625.0
sg8
F0.0
sg9
F0.0
sg10
F0.0
sg11
F0.0
sg12
F0.0
sg13
F0.0
sg14
F680833.0
sg15
F0.0
sg16
F0.0
sg17
F0.0
sg18
F0.0
sg19
F0.0
sg20
F0.0
sg21
F0.0
sg22
F6615.0
sg23
F1146658.0
sg24
F0.0
sg25
F0.0
sg26
F1146659.0
sg27
F0.00015114873035066505
ssS'PICKERING MARK R'
p226
(dp227
g3
F898.0
sg4
F0.0
sg5
F31653.0
sg6
I00
sg7
F0.0
sg8
F7.0
sg9
F0.0
sg10
F0.0
sg11
F728.0
sg12
F400000.0
sg13
F67.0
sg14
F0.0
sg15
F0.008898776418242492
sg16
F0.0
sg17
F300000.0
sg18
F28798.0
sg19
F0.0
sg20
F0.014705882352941176
sg21
F0.0
sg22
F655037.0
sg23
F1386690.0
sg24
F0.8109010011123471
sg25
F28798.0
sg26
F48.150664953644224
sg27
F0.4579902234679515
ssS'THE TRAVEL AGENCY IN THE PARK'
p228
(dp229
g3
F0.0
sg4
F0.0
sg5
F0.0
sg6
I00
sg7
F0.0
sg8
F0.0
sg9
F0.0
sg10
F0.0
sg11
F0.0
sg12
F0.0
sg13
F0.0
sg14
F362096.0
sg15
F0.0
sg16
F0.0
sg17
F0.0
sg18
F0.0
sg19
F0.0
sg20
F0.0
sg21
F0.0
sg22
F0.0
sg23
F362096.0
sg24
F0.0
sg25
F0.0
sg26
F362097.0
sg27
F1.0
ssS'NOLES JAMES L'
p230
(dp231
g3
F0.0
sg4
F774401.0
sg5
F0.0
sg6
I00
sg7
F0.0
sg8
F0.0
sg9
F0.0
sg10
F-94556.0
sg11
F0.0
sg12
F0.0
sg13
F0.0
sg14
F0.0
sg15
F0.0
sg16
F0.0
sg17
F0.0
sg18
F368705.0
sg19
F0.0
sg20
F0.0
sg21
F463261.0
sg22
F0.0
sg23
F774401.0
sg24
F0.0
sg25
F0.0
sg26
F2.10032383525085
sg27
F1.0
ssS'KEAN STEVEN J'
p232
(dp233
g3
F12754.0
sg4
F0.0
sg5
F41953.0
sg6
I00
sg7
F300000.0
sg8
F140.0
sg9
F0.0
sg10
F0.0
sg11
F3639.0
sg12
F0.0
sg13
F6759.0
sg14
F1231.0
sg15
F0.011054488435907487
sg16
F0.0
sg17
F1000000.0
sg18
F6153642.0
sg19
F387.0
sg20
F0.05739644970414201
sg21
F4131594.0
sg22
F404338.0
sg23
F1747522.0
sg24
F0.2853782830262642
sg25
F2022048.0
sg26
F0.2839818624512342
sg27
F2.473174737039959
ssS'FOWLER PEGGY'
p234
(dp235
g3
F517.0
sg4
F0.0
sg5
F0.0
sg6
I00
sg7
F0.0
sg8
F0.0
sg9
F0.0
sg10
F0.0
sg11
F10.0
sg12
F0.0
sg13
F36.0
sg14
F0.0
sg15
F0.0019305019305019305
sg16
F0.0
sg17
F0.0
sg18
F1884748.0
sg19
F0.0
sg20
F0.02702702702702703
sg21
F560170.0
sg22
F0.0
sg23
F0.0
sg24
F0.021235521235521235
sg25
F1324578.0
sg26
F5.305746282396224e-07
sg27
F1.0
ssS'WASAFF GEORGE'
p236
(dp237
g3
F400.0
sg4
F831299.0
sg5
F0.0
sg6
I00
sg7
F200000.0
sg8
F22.0
sg9
F-583325.0
sg10
F0.0
sg11
F337.0
sg12
F0.0
sg13
F30.0
sg14
F1425.0
sg15
F0.057356608478802994
sg16
F0.0
sg17
F325000.0
sg18
F2056427.0
sg19
F7.0
sg20
F0.25806451612903225
sg21
F388167.0
sg22
F259996.0
sg23
F1034395.0
sg24
F0.8428927680798005
sg25
F1668260.0
sg26
F0.5030061835376682
sg27
F1.2500182694415705
ssS'WHITE JR THOMAS E'
p238
(dp239
g3
F0.0
sg4
F0.0
sg5
F81353.0
sg6
I00
sg7
F0.0
sg8
F0.0
sg9
F0.0
sg10
F0.0
sg11
F0.0
sg12
F0.0
sg13
F0.0
sg14
F1085463.0
sg15
F0.0
sg16
F0.0
sg17
F450000.0
sg18
F15144123.0
sg19
F0.0
sg20
F0.0
sg21
F13847074.0
sg22
F317543.0
sg23
F1934359.0
sg24
F0.0
sg25
F1297049.0
sg26
F0.1277300687712277
sg27
F1.4171295946388531
ssS'CHRISTODOULOU DIOMEDES'
p240
(dp241
g3
F0.0
sg4
F0.0
sg5
F0.0
sg6
I00
sg7
F0.0
sg8
F0.0
sg9
F0.0
sg10
F0.0
sg11
F0.0
sg12
F0.0
sg13
F0.0
sg14
F0.0
sg15
F0.0
sg16
F0.0
sg17
F0.0
sg18
F6077885.0
sg19
F0.0
sg20
F0.0
sg21
F950730.0
sg22
F0.0
sg23
F0.0
sg24
F0.0
sg25
F5127155.0
sg26
F1.6453089116840953e-07
sg27
F1.0
ssS'ALLEN PHILLIP K'
p242
(dp243
g3
F2902.0
sg4
F2869717.0
sg5
F13868.0
sg6
I00
sg7
F304805.0
sg8
F47.0
sg9
F-3081055.0
sg10
F-126027.0
sg11
F1407.0
sg12
F0.0
sg13
F2195.0
sg14
F152.0
sg15
F0.0165346193592835
sg16
F0.0
sg17
F4175000.0
sg18
F1729541.0
sg19
F65.0
sg20
F0.030054644808743168
sg21
F126027.0
sg22
F201955.0
sg23
F4484442.0
sg24
F0.48501550120564935
sg25
F1729541.0
sg26
F2.59285001462815
sg27
F20.672824773713085
ssS'SHARP VICTORIA T'
p244
(dp245
g3
F3136.0
sg4
F187469.0
sg5
F116337.0
sg6
I00
sg7
F422158.0
sg8
F24.0
sg9
F0.0
sg10
F0.0
sg11
F2477.0
sg12
F0.0
sg13
F136.0
sg14
F2401.0
sg15
F0.007969397513547976
sg16
F0.0
sg17
F600000.0
sg18
F494136.0
sg19
F6.0
sg20
F0.051094890510948905
sg21
F213063.0
sg22
F248146.0
sg23
F1576511.0
sg24
F0.7899266815428754
sg25
F281073.0
sg26
F3.190435041294216
sg27
F2.4179256650291965
ssS'JAEDICKE ROBERT'
p246
(dp247
g3
F0.0
sg4
F0.0
sg5
F0.0
sg6
I00
sg7
F0.0
sg8
F0.0
sg9
F-25000.0
sg10
F-44093.0
sg11
F0.0
sg12
F0.0
sg13
F0.0
sg14
F0.0
sg15
F0.0
sg16
F108750.0
sg17
F0.0
sg18
F431750.0
sg19
F0.0
sg20
F0.0
sg21
F44093.0
sg22
F0.0
sg23
F83750.0
sg24
F0.0
sg25
F431750.0
sg26
F0.19397986339348375
sg27
F1.0
ssS'WINOKUR JR. HERBERT S'
p248
(dp249
g3
F0.0
sg4
F0.0
sg5
F1413.0
sg6
I00
sg7
F0.0
sg8
F0.0
sg9
F-25000.0
sg10
F0.0
sg11
F0.0
sg12
F0.0
sg13
F0.0
sg14
F0.0
sg15
F0.0
sg16
F108579.0
sg17
F0.0
sg18
F0.0
sg19
F0.0
sg20
F0.0
sg21
F0.0
sg22
F0.0
sg23
F84992.0
sg24
F0.0
sg25
F0.0
sg26
F84993.0
sg27
F1.0
ssS'BROWN MICHAEL'
p250
(dp251
g3
F1486.0
sg4
F0.0
sg5
F49288.0
sg6
I00
sg7
F0.0
sg8
F13.0
sg9
F0.0
sg10
F0.0
sg11
F761.0
sg12
F0.0
sg13
F41.0
sg14
F0.0
sg15
F0.00941492938802959
sg16
F0.0
sg17
F0.0
sg18
F0.0
sg19
F1.0
sg20
F0.047619047619047616
sg21
F0.0
sg22
F0.0
sg23
F49288.0
sg24
F0.5124411566913248
sg25
F0.0
sg26
F49289.0
sg27
F1.0
ssS'BADUM JAMES P'
p252
(dp253
g3
F0.0
sg4
F178980.0
sg5
F3486.0
sg6
I00
sg7
F0.0
sg8
F0.0
sg9
F0.0
sg10
F0.0
sg11
F0.0
sg12
F0.0
sg13
F0.0
sg14
F0.0
sg15
F0.0
sg16
F0.0
sg17
F0.0
sg18
F257817.0
sg19
F0.0
sg20
F0.0
sg21
F0.0
sg22
F0.0
sg23
F182466.0
sg24
F0.0
sg25
F257817.0
sg26
F0.7077356895174115
sg27
F1.0
ssS'HUGHES JAMES A'
p254
(dp255
g3
F719.0
sg4
F0.0
sg5
F0.0
sg6
I00
sg7
F0.0
sg8
F35.0
sg9
F0.0
sg10
F0.0
sg11
F589.0
sg12
F0.0
sg13
F34.0
sg14
F0.0
sg15
F0.05
sg16
F0.0
sg17
F0.0
sg18
F1118394.0
sg19
F5.0
sg20
F0.17142857142857143
sg21
F363428.0
sg22
F0.0
sg23
F0.0
sg24
F0.8194444444444444
sg25
F754966.0
sg26
F8.941384752256582e-07
sg27
F1.0
ssS'REYNOLDS LAWRENCE'
p256
(dp257
g3
F0.0
sg4
F51365.0
sg5
F8409.0
sg6
I00
sg7
F156250.0
sg8
F0.0
sg9
F-200000.0
sg10
F-140264.0
sg11
F0.0
sg12
F0.0
sg13
F0.0
sg14
F202052.0
sg15
F0.0
sg16
F0.0
sg17
F100000.0
sg18
F4221891.0
sg19
F0.0
sg20
F0.0
sg21
F201483.0
sg22
F76399.0
sg23
F394475.0
sg24
F0.0
sg25
F4160672.0
sg26
F0.09343583398154193
sg27
F1.308913612565445
ssS'DIMICHELE RICHARD G'
p258
(dp259
g3
F0.0
sg4
F0.0
sg5
F35812.0
sg6
I00
sg7
F694862.0
sg8
F0.0
sg9
F0.0
sg10
F0.0
sg11
F0.0
sg12
F0.0
sg13
F0.0
sg14
F374689.0
sg15
F0.0
sg16
F0.0
sg17
F1000000.0
sg18
F8317782.0
sg19
F0.0
sg20
F0.0
sg21
F126027.0
sg22
F262788.0
sg23
F2368151.0
sg24
F0.0
sg25
F8191755.0
sg26
F0.28470951935149064
sg27
F3.8053381229807943
ssS'BHATNAGAR SANJAY'
p260
(dp261
g3
F523.0
sg4
F0.0
sg5
F137864.0
sg6
I00
sg7
F0.0
sg8
F0.0
sg9
F0.0
sg10
F-2604490.0
sg11
F463.0
sg12
F0.0
sg13
F29.0
sg14
F0.0
sg15
F0.0019083969465648854
sg16
F0.0
sg17
F0.0
sg18
F15456290.0
sg19
F1.0
sg20
F0.06666666666666667
sg21
F2604490.0
sg22
F0.0
sg23
F137864.0
sg24
F0.8854961832061069
sg25
F15456290.0
sg26
F0.008919669020206723
sg27
F1.0
ssS'CARTER REBECCA C'
p262
(dp263
g3
F312.0
sg4
F0.0
sg5
F0.0
sg6
I00
sg7
F75000.0
sg8
F29.0
sg9
F-159792.0
sg10
F-307301.0
sg11
F196.0
sg12
F0.0
sg13
F15.0
sg14
F540.0
sg15
F0.09584664536741214
sg16
F0.0
sg17
F300000.0
sg18
F0.0
sg19
F7.0
sg20
F0.5
sg21
F307301.0
sg22
F261809.0
sg23
F477557.0
sg24
F0.6293929712460063
sg25
F0.0
sg26
F477558.0
sg27
F1.1458729613078187
ssS'BUCHANAN HAROLD G'
p264
(dp265
g3
F1088.0
sg4
F0.0
sg5
F600.0
sg6
I00
sg7
F304805.0
sg8
F0.0
sg9
F0.0
sg10
F0.0
sg11
F23.0
sg12
F0.0
sg13
F125.0
sg14
F1215.0
sg15
F0.0009182736455463728
sg16
F0.0
sg17
F500000.0
sg18
F1014505.0
sg19
F0.0
sg20
F0.007936507936507936
sg21
F189041.0
sg22
F248017.0
sg23
F1054637.0
sg24
F0.02203856749311295
sg25
F825464.0
sg26
F1.0395581691976192
sg27
F2.015986742897693
ssS'YEAP SOON'
p266
(dp267
g3
F0.0
sg4
F0.0
sg5
F55097.0
sg6
I00
sg7
F0.0
sg8
F0.0
sg9
F0.0
sg10
F0.0
sg11
F0.0
sg12
F0.0
sg13
F0.0
sg14
F0.0
sg15
F0.0
sg16
F0.0
sg17
F0.0
sg18
F192758.0
sg19
F0.0
sg20
F0.0
sg21
F0.0
sg22
F0.0
sg23
F55097.0
sg24
F0.0
sg25
F192758.0
sg26
F0.28583879351936875
sg27
F1.0
ssS'MURRAY JULIA H'
p268
(dp269
g3
F2192.0
sg4
F0.0
sg5
F57580.0
sg6
I00
sg7
F125000.0
sg8
F11.0
sg9
F0.0
sg10
F0.0
sg11
F395.0
sg12
F0.0
sg13
F45.0
sg14
F330.0
sg15
F0.005471956224350205
sg16
F0.0
sg17
F400000.0
sg18
F597461.0
sg19
F2.0
sg20
F0.06521739130434782
sg21
F196983.0
sg22
F229284.0
sg23
F812194.0
sg24
F0.18057455540355677
sg25
F400478.0
sg26
F1.359408631846042
sg27
F1.7445580827354603
ssS'GARLAND C KEVIN'
p270
(dp271
g3
F209.0
sg4
F0.0
sg5
F48405.0
sg6
I00
sg7
F375304.0
sg8
F10.0
sg9
F0.0
sg10
F0.0
sg11
F178.0
sg12
F0.0
sg13
F44.0
sg14
F60814.0
sg15
F0.05238095238095238
sg16
F0.0
sg17
F850000.0
sg18
F896153.0
sg19
F27.0
sg20
F0.6222222222222222
sg21
F259907.0
sg22
F231946.0
sg23
F1566469.0
sg24
F0.8523809523809524
sg25
F636246.0
sg26
F1.7479919745936525
sg27
F3.6646345932475954
ssS'DODSON KEITH'
p272
(dp273
g3
F176.0
sg4
F0.0
sg5
F28164.0
sg6
I00
sg7
F0.0
sg8
F10.0
sg9
F0.0
sg10
F0.0
sg11
F114.0
sg12
F0.0
sg13
F14.0
sg14
F774.0
sg15
F0.062146892655367235
sg16
F0.0
sg17
F70000.0
sg18
F0.0
sg19
F3.0
sg20
F0.26666666666666666
sg21
F0.0
sg22
F221003.0
sg23
F319941.0
sg24
F0.6497175141242938
sg25
F0.0
sg26
F319942.0
sg27
F0.3167408734683535
ssS'YEAGER F SCOTT'
p274
(dp275
g3
F0.0
sg4
F0.0
sg5
F53947.0
sg6
I01
sg7
F0.0
sg8
F0.0
sg9
F0.0
sg10
F0.0
sg11
F0.0
sg12
F0.0
sg13
F0.0
sg14
F147950.0
sg15
F0.0
sg16
F0.0
sg17
F0.0
sg18
F11884758.0
sg19
F0.0
sg20
F0.0
sg21
F3576206.0
sg22
F158403.0
sg23
F360300.0
sg24
F0.0
sg25
F8308552.0
sg26
F0.030316222651212362
sg27
F6.312971894649125e-06
ssS'HIRKO JOSEPH'
p276
(dp277
g3
F0.0
sg4
F10259.0
sg5
F77978.0
sg6
I01
sg7
F0.0
sg8
F0.0
sg9
F0.0
sg10
F0.0
sg11
F0.0
sg12
F0.0
sg13
F0.0
sg14
F2856.0
sg15
F0.0
sg16
F0.0
sg17
F0.0
sg18
F30766064.0
sg19
F0.0
sg20
F0.0
sg21
F0.0
sg22
F0.0
sg23
F91093.0
sg24
F0.0
sg25
F30766064.0
sg26
F0.0029608596354457417
sg27
F1.0
ssS'DIETRICH JANET R'
p278
(dp279
g3
F2572.0
sg4
F0.0
sg5
F3475.0
sg6
I00
sg7
F556416.0
sg8
F305.0
sg9
F0.0
sg10
F0.0
sg11
F1902.0
sg12
F0.0
sg13
F63.0
sg14
F473.0
sg15
F0.11892732219199378
sg16
F0.0
sg17
F600000.0
sg18
F1865087.0
sg19
F14.0
sg20
F0.234375
sg21
F315068.0
sg22
F250100.0
sg23
F1410464.0
sg24
F0.7396035755926934
sg25
F1550019.0
sg26
F0.7562458178917026
sg27
F2.3990347899448623
ssS'DERRICK JR. JAMES V'
p280
(dp281
g3
F2181.0
sg4
F0.0
sg5
F51124.0
sg6
I00
sg7
F484000.0
sg8
F64.0
sg9
F-1284000.0
sg10
F-1787380.0
sg11
F1401.0
sg12
F0.0
sg13
F909.0
sg14
F7482.0
sg15
F0.029789184234647114
sg16
F0.0
sg17
F800000.0
sg18
F8831913.0
sg19
F20.0
sg20
F0.023076923076923078
sg21
F1787380.0
sg22
F492375.0
sg23
F550981.0
sg24
F0.6425297891842346
sg25
F8831913.0
sg26
F0.06238534478483373
sg27
F1.6247765934976521
ssS'FREVERT MARK A'
p282
(dp283
g3
F3275.0
sg4
F6426990.0
sg5
F86987.0
sg6
I00
sg7
F1617011.0
sg8
F242.0
sg9
F-3367011.0
sg10
F0.0
sg11
F2979.0
sg12
F2000000.0
sg13
F21.0
sg14
F7427621.0
sg15
F0.07417582417582418
sg16
F0.0
sg17
F2000000.0
sg18
F14622185.0
sg19
F6.0
sg20
F0.3181818181818182
sg21
F4188667.0
sg22
F1060932.0
sg23
F17252530.0
sg24
F0.9096459096459096
sg25
F10433518.0
sg26
F1.1798872617268035
sg27
F1.8851341225129203
ssS'PAI LOU L'
p284
(dp285
g3
F0.0
sg4
F0.0
sg5
F32047.0
sg6
I00
sg7
F0.0
sg8
F0.0
sg9
F0.0
sg10
F0.0
sg11
F0.0
sg12
F0.0
sg13
F0.0
sg14
F1829457.0
sg15
F0.0
sg16
F0.0
sg17
F1000000.0
sg18
F23817930.0
sg19
F0.0
sg20
F0.0
sg21
F8453763.0
sg22
F261879.0
sg23
F3123383.0
sg24
F0.0
sg25
F15364167.0
sg26
F0.13113582367838753
sg27
F3.8185466625935542
ssS'BAY FRANKLIN R'
p286
(dp287
g3
F0.0
sg4
F260455.0
sg5
F129142.0
sg6
I00
sg7
F0.0
sg8
F0.0
sg9
F-201641.0
sg10
F-82782.0
sg11
F0.0
sg12
F0.0
sg13
F0.0
sg14
F69.0
sg15
F0.0
sg16
F0.0
sg17
F400000.0
sg18
F63014.0
sg19
F0.0
sg20
F0.0
sg21
F145796.0
sg22
F239671.0
sg23
F827696.0
sg24
F0.0
sg25
F0.0
sg26
F13.134920257081648
sg27
F1.6689517340365165
ssS'HAYSLETT RODERICK J'
p288
(dp289
g3
F2649.0
sg4
F0.0
sg5
F0.0
sg6
I00
sg7
F0.0
sg8
F35.0
sg9
F0.0
sg10
F0.0
sg11
F571.0
sg12
F0.0
sg13
F1061.0
sg14
F0.0
sg15
F0.013584905660377358
sg16
F0.0
sg17
F0.0
sg18
F346663.0
sg19
F38.0
sg20
F0.03672316384180791
sg21
F346663.0
sg22
F0.0
sg23
F0.0
sg24
F0.2158490566037736
sg25
F0.0
sg26
F2.8846375741351856e-06
sg27
F1.0
ssS'FUGH JOHN L'
p290
(dp291
g3
F0.0
sg4
F50591.0
sg5
F0.0
sg6
I00
sg7
F0.0
sg8
F0.0
sg9
F0.0
sg10
F0.0
sg11
F0.0
sg12
F0.0
sg13
F0.0
sg14
F0.0
sg15
F0.0
sg16
F0.0
sg17
F0.0
sg18
F176378.0
sg19
F0.0
sg20
F0.0
sg21
F0.0
sg22
F0.0
sg23
F50591.0
sg24
F0.0
sg25
F176378.0
sg26
F0.2868368683346657
sg27
F1.0
ssS'FALLON JAMES B'
p292
(dp293
g3
F1755.0
sg4
F0.0
sg5
F95924.0
sg6
I00
sg7
F374347.0
sg8
F42.0
sg9
F0.0
sg10
F0.0
sg11
F1604.0
sg12
F0.0
sg13
F75.0
sg14
F401481.0
sg15
F0.0244874715261959
sg16
F0.0
sg17
F2500000.0
sg18
F2332399.0
sg19
F37.0
sg20
F0.5
sg21
F1392142.0
sg22
F304588.0
sg23
F3676340.0
sg24
F0.914009111617312
sg25
F940257.0
sg26
F1.57620519636426
sg27
F8.207784916723847
ssS'KOENIG MARK E'
p294
(dp295
g3
F2374.0
sg4
F0.0
sg5
F127017.0
sg6
I01
sg7
F300000.0
sg8
F53.0
sg9
F0.0
sg10
F0.0
sg11
F2271.0
sg12
F0.0
sg13
F61.0
sg14
F150458.0
sg15
F0.02273684210526316
sg16
F0.0
sg17
F700000.0
sg18
F1920055.0
sg19
F15.0
sg20
F0.25806451612903225
sg21
F1248318.0
sg22
F309946.0
sg23
F1587421.0
sg24
F0.9566315789473684
sg25
F671737.0
sg26
F0.8267581778864783
sg27
F2.2584538646929957
ssS'SAVAGE FRANK'
p296
(dp297
g3
F0.0
sg4
F0.0
sg5
F0.0
sg6
I00
sg7
F0.0
sg8
F0.0
sg9
F-121284.0
sg10
F0.0
sg11
F0.0
sg12
F0.0
sg13
F0.0
sg14
F0.0
sg15
F0.0
sg16
F125034.0
sg17
F0.0
sg18
F0.0
sg19
F0.0
sg20
F0.0
sg21
F0.0
sg22
F0.0
sg23
F3750.0
sg24
F0.0
sg25
F0.0
sg26
F3751.0
sg27
F1.0
ssS'IZZO LAWRENCE L'
p298
(dp299
g3
F496.0
sg4
F0.0
sg5
F28093.0
sg6
I00
sg7
F312500.0
sg8
F28.0
sg9
F0.0
sg10
F0.0
sg11
F437.0
sg12
F0.0
sg13
F19.0
sg14
F1553729.0
sg15
F0.05835010060362173
sg16
F0.0
sg17
F0.0
sg18
F5819980.0
sg19
F5.0
sg20
F0.3
sg21
F3654808.0
sg22
F85274.0
sg23
F1979596.0
sg24
F0.8812877263581489
sg25
F2165172.0
sg26
F0.340138051997077
sg27
F1.1726766344180592e-05
ssS'TILNEY ELIZABETH A'
p300
(dp301
g3
F460.0
sg4
F0.0
sg5
F0.0
sg6
I00
sg7
F275000.0
sg8
F10.0
sg9
F-575000.0
sg10
F0.0
sg11
F379.0
sg12
F0.0
sg13
F19.0
sg14
F152055.0
sg15
F0.02386117136659436
sg16
F0.0
sg17
F300000.0
sg18
F1168042.0
sg19
F11.0
sg20
F0.6
sg21
F576792.0
sg22
F247338.0
sg23
F399393.0
sg24
F0.824295010845987
sg25
F591250.0
sg26
F0.3419343294724595
sg27
F1.2129142593768067
ssS'MARTIN AMANDA K'
p302
(dp303
g3
F1522.0
sg4
F85430.0
sg5
F8211.0
sg6
I00
sg7
F5145434.0
sg8
F8.0
sg9
F0.0
sg10
F0.0
sg11
F477.0
sg12
F0.0
sg13
F230.0
sg14
F2818454.0
sg15
F0.005909389363099146
sg16
F0.0
sg17
F0.0
sg18
F2070306.0
sg19
F0.0
sg20
F0.004329004329004329
sg21
F0.0
sg22
F349487.0
sg23
F8407016.0
sg24
F0.31385423506237686
sg25
F2070306.0
sg26
F4.060758621788942
sg27
F2.8613285720825894e-06
ssS'BUY RICHARD B'
p304
(dp305
g3
F3523.0
sg4
F649584.0
sg5
F0.0
sg6
I00
sg7
F769862.0
sg8
F156.0
sg9
F-694862.0
sg10
F0.0
sg11
F2333.0
sg12
F0.0
sg13
F1053.0
sg14
F400572.0
sg15
F0.0445516458569807
sg16
F0.0
sg17
F900000.0
sg18
F3444470.0
sg19
F71.0
sg20
F0.0683111954459203
sg21
F901657.0
sg22
F330546.0
sg23
F2355702.0
sg24
F0.6623155505107832
sg25
F2542813.0
sg26
F0.6839085014796176
sg27
F2.7227625723422086
ssS'GRAMM WENDY L'
p306
(dp307
g3
F0.0
sg4
F0.0
sg5
F0.0
sg6
I00
sg7
F0.0
sg8
F0.0
sg9
F0.0
sg10
F0.0
sg11
F0.0
sg12
F0.0
sg13
F0.0
sg14
F0.0
sg15
F0.0
sg16
F119292.0
sg17
F0.0
sg18
F0.0
sg19
F0.0
sg20
F0.0
sg21
F0.0
sg22
F0.0
sg23
F119292.0
sg24
F0.0
sg25
F0.0
sg26
F119293.0
sg27
F1.0
ssS'CAUSEY RICHARD A'
p308
(dp309
g3
F1892.0
sg4
F0.0
sg5
F30674.0
sg6
I01
sg7
F350000.0
sg8
F58.0
sg9
F-235000.0
sg10
F0.0
sg11
F1585.0
sg12
F0.0
sg13
F49.0
sg14
F307895.0
sg15
F0.03116745905969361
sg16
F0.0
sg17
F1000000.0
sg18
F2502063.0
sg19
F12.0
sg20
F0.26
sg21
F2502063.0
sg22
F415189.0
sg23
F1868758.0
sg24
F0.837823560486001
sg25
F0.0
sg26
F0.746886970117471
sg27
F2.408538259591994
ssS'TAYLOR MITCHELL S'
p310
(dp311
g3
F533.0
sg4
F227449.0
sg5
F0.0
sg6
I00
sg7
F0.0
sg8
F0.0
sg9
F0.0
sg10
F0.0
sg11
F300.0
sg12
F0.0
sg13
F29.0
sg14
F0.0
sg15
F0.0018726591760299626
sg16
F0.0
sg17
F600000.0
sg18
F3745048.0
sg19
F0.0
sg20
F0.03333333333333333
sg21
F563798.0
sg22
F265214.0
sg23
F1092663.0
sg24
F0.5636704119850188
sg25
F3181250.0
sg26
F0.29176227066721955
sg27
F2.262319250419471
ssS'DONAHUE JR JEFFREY M'
p312
(dp313
g3
F865.0
sg4
F0.0
sg5
F96268.0
sg6
I00
sg7
F0.0
sg8
F188.0
sg9
F-300000.0
sg10
F0.0
sg11
F772.0
sg12
F0.0
sg13
F22.0
sg14
F891.0
sg15
F0.21824480369515012
sg16
F0.0
sg17
F800000.0
sg18
F1080988.0
sg19
F11.0
sg20
F0.5217391304347826
sg21
F315068.0
sg22
F278601.0
sg23
F875760.0
sg24
F0.8926096997690531
sg25
F765920.0
sg26
F0.8101479293498823
sg27
F2.871483334649428
ssS'GLISAN JR BEN F'
p314
(dp315
g3
F873.0
sg4
F0.0
sg5
F125978.0
sg6
I01
sg7
F71023.0
sg8
F52.0
sg9
F0.0
sg10
F0.0
sg11
F874.0
sg12
F0.0
sg13
F16.0
sg14
F200308.0
sg15
F0.06064073226544622
sg16
F0.0
sg17
F600000.0
sg18
F778546.0
sg19
F6.0
sg20
F0.4117647058823529
sg21
F393818.0
sg22
F274975.0
sg23
F1272284.0
sg24
F1.0011441647597255
sg25
F384728.0
sg26
F1.6341787971695994
sg27
F2.1820122483416733
ss.