cpandas.core.indexes.base
_new_Index
p0
(cpandas.core.indexes.base
Index
p1
(dp2
S'data'
p3
cnumpy.core.multiarray
_reconstruct
p4
(cnumpy
ndarray
p5
(I0
tp6
S'b'
p7
tp8
Rp9
(I1
(I25
tp10
cnumpy
dtype
p11
(S'O8'
p12
I0
I1
tp13
Rp14
(I3
S'|'
p15
NNNI-1
I-1
I63
tp16
bI00
(lp17
S'poi'
p18
aS'salary'
p19
aS'bonus'
p20
aS'long_term_incentive'
p21
aS'deferred_income'
p22
aS'deferral_payments'
p23
aS'loan_advances'
p24
aS'other'
p25
aS'expenses'
p26
aS'director_fees'
p27
aS'total_payments'
p28
aS'exercised_stock_options'
p29
aS'restricted_stock'
p30
aS'restricted_stock_deferred'
p31
aS'total_stock_value'
p32
aS'from_messages'
p33
aS'from_poi_to_this_person'
p34
aS'from_this_person_to_poi'
p35
aS'shared_receipt_with_poi'
p36
aS'to_messages'
p37
aS'from_poi_ratio'
p38
aS'to_poi_ratio'
p39
aS'shared_poi_ratio'
p40
aS'bonus_to_salary'
p41
aS'payments_to_stock'
p42
atp43
bsS'name'
p44
Nstp45
Rp46
.